; Function Attrs: nounwind uwtable
define dso_local ptr @zend_get_constant(ptr noundef %0) local_unnamed_addr #0 {
  %2 = load ptr, ptr getelementptr inbounds nuw (i8, ptr @executor_globals, i64 472), align 8, !tbaa !17
  %3 = tail call ptr @zend_hash_find(ptr noundef %2, ptr noundef %0) #11
  %.not.i.i = icmp eq ptr %3, null
  br i1 %.not.i.i, label %5, label %zend_hash_find_ptr.exit.i

zend_hash_find_ptr.exit.i:                        ; preds = %1
  %4 = load ptr, ptr %3, align 8, !tbaa !4, !nonnull !49, !noundef !49
  br label %zend_get_constant_ptr.exit

5:                                                ; preds = %1
  %6 = getelementptr inbounds nuw i8, ptr %0, i64 24
  %7 = getelementptr inbounds nuw i8, ptr %0, i64 16
  %8 = load i64, ptr %7, align 8, !tbaa !52
  %9 = tail call fastcc ptr @zend_get_halt_offset_constant(ptr noundef nonnull %6, i64 noundef %8)
  %.not12.i = icmp eq ptr %9, null
  br i1 %.not12.i, label %10, label %zend_get_constant_ptr.exit

10:                                               ; preds = %5
  %11 = load i64, ptr %7, align 8, !tbaa !52
  %12 = and i64 %11, -2
  %or.cond.i.i = icmp eq i64 %12, 4
  br i1 %or.cond.i.i, label %13, label %zend_get_constant_ptr.exit

13:                                               ; preds = %10
  %14 = tail call ptr @_zend_get_special_const(ptr noundef nonnull %6, i64 noundef %11)
  br label %zend_get_constant_ptr.exit

zend_get_constant_ptr.exit:                       ; preds = %zend_hash_find_ptr.exit.i, %5, %10, %13
  %.0.i = phi ptr [ %4, %zend_hash_find_ptr.exit.i ], [ %9, %5 ], [ %14, %13 ], [ null, %10 ]
  ret ptr %.0.i
}